Certificate:
    Data:
        Version: 3 (0x2)
        Serial Number: 10 (0xa)
    Signature Algorithm: sha1WithRSAEncryption
        Issuer: C=US, ST=California, L=Los Angeles, O=Penske Media Corporation, CN=PMC/emailAddress=dist.dev@pmc.com
        Validity
            Not Before: Oct 10 04:20:01 2014 GMT
            Not After : Oct  7 04:20:01 2024 GMT
        Subject: C=US, ST=California, L=Los Angeles, O=PMC, OU=PMC, CN=PMC Dev Sites
        Subject Public Key Info:
            Public Key Algorithm: rsaEncryption
                Public-Key: (2048 bit)
                Modulus:
                    00:ac:24:91:18:ef:0e:a8:a8:e7:96:c8:4b:36:5b:
                    57:a3:cb:c4:46:7f:be:74:35:28:98:17:19:62:9a:
                    16:2d:ba:85:90:66:e9:ee:57:15:3a:71:6d:f5:65:
                    a6:58:d2:1a:ca:26:5f:99:ff:76:fc:08:2f:78:82:
                    75:52:2e:39:2d:70:03:36:b7:b8:96:d4:ae:14:a9:
                    3e:be:37:fc:2e:f4:88:2b:ed:85:5b:9a:e3:ad:d4:
                    b8:4d:1a:98:bd:1f:f2:31:fc:5d:6d:d8:56:a9:5c:
                    50:3f:15:d7:98:61:58:95:bd:33:49:25:ea:e8:1e:
                    86:45:b2:06:1e:07:cb:43:0d:21:e7:1f:85:d2:75:
                    7c:b9:0a:9e:72:67:15:c4:8f:30:99:51:98:49:ef:
                    f5:64:08:34:3d:70:88:2b:25:3c:52:d6:cc:85:51:
                    e5:7d:f5:2c:6b:ff:2f:aa:01:fa:d4:ec:1e:15:37:
                    c2:47:9f:9b:f2:a5:f5:7e:b6:f1:c8:b0:91:f7:27:
                    a5:a7:f3:d1:f6:b5:7d:74:59:24:90:c1:c1:10:90:
                    cc:90:3f:96:02:62:a1:52:1f:98:5a:4b:b5:2b:5e:
                    17:fa:e7:f6:85:12:e8:0e:04:32:2c:5f:46:31:68:
                    f3:b9:0e:db:20:af:60:59:07:03:e9:b7:bf:d9:7a:
                    c8:67
                Exponent: 65537 (0x10001)
        X509v3 extensions:
            X509v3 Basic Constraints: 
                CA:FALSE
            X509v3 Key Usage: 
                Digital Signature, Non Repudiation, Key Encipherment, Data Encipherment
            X509v3 Extended Key Usage: 
                TLS Web Server Authentication
            X509v3 Subject Alternative Name: 
                DNS:localhost, DNS:vip.dev, DNS:pmc.dev, DNS:local.dev, DNS:*.vip.dev, DNS:*.pmc.dev, DNS:*.local.dev
    Signature Algorithm: sha1WithRSAEncryption
         b7:52:96:bd:68:ad:e6:d7:79:2b:90:3d:58:81:d4:60:6a:a1:
         36:e8:01:95:78:34:8e:a8:6a:e3:1c:67:17:a5:16:e0:e5:2c:
         74:ff:b5:51:96:90:f4:fc:cc:8b:f6:1c:96:dc:18:1f:e8:ef:
         0e:76:74:be:b7:8d:df:f4:3b:17:57:26:55:f9:ad:47:cc:13:
         f2:96:43:f2:17:76:aa:85:72:ab:03:61:72:7d:b9:31:a2:90:
         58:eb:39:95:fd:6a:82:e9:d4:33:ad:82:b1:e5:a3:7b:97:98:
         9e:8b:60:15:9a:19:57:4d:34:c2:0b:9c:33:81:20:16:dc:ba:
         25:ac:22:7b:04:bd:74:66:f6:13:3c:2f:d1:f6:b3:d8:63:cd:
         fa:1d:1f:ef:66:37:32:fc:6e:48:df:cf:75:33:92:d1:37:59:
         ae:59:0f:a7:11:f5:0e:e8:dc:46:1b:96:37:6b:91:1f:66:be:
         78:ff:b5:e0:bf:f9:2f:4a:5b:9c:ed:c2:90:ac:ae:d9:00:45:
         2a:34:2e:2b:32:77:33:73:99:3b:a9:6b:ae:b6:7c:34:e2:d4:
         f3:71:cb:75:b7:ae:be:3f:a6:e3:44:9d:4a:3f:72:a0:76:b5:
         2a:7d:29:6c:b0:25:54:ab:89:bf:a1:7c:0a:30:cd:c8:9d:7e:
         cc:95:f0:a6
-----BEGIN CERTIFICATE-----
MIID+TCCAuGgAwIBAgIBCjANBgkqhkiG9w0BAQUFADCBijELMAkGA1UEBhMCVVMx
EzARBgNVBAgMCkNhbGlmb3JuaWExFDASBgNVBAcMC0xvcyBBbmdlbGVzMSEwHwYD
VQQKDBhQZW5za2UgTWVkaWEgQ29ycG9yYXRpb24xDDAKBgNVBAMMA1BNQzEfMB0G
CSqGSIb3DQEJARYQZGlzdC5kZXZAcG1jLmNvbTAeFw0xNDEwMTAwNDIwMDFaFw0y
NDEwMDcwNDIwMDFaMGwxCzAJBgNVBAYTAlVTMRMwEQYDVQQIDApDYWxpZm9ybmlh
MRQwEgYDVQQHDAtMb3MgQW5nZWxlczEMMAoGA1UECgwDUE1DMQwwCgYDVQQLDANQ
TUMxFjAUBgNVBAMMDVBNQyBEZXYgU2l0ZXMwggEiMA0GCSqGSIb3DQEBAQUAA4IB
DwAwggEKAoIBAQCsJJEY7w6oqOeWyEs2W1ejy8RGf750NSiYFxlimhYtuoWQZunu
VxU6cW31ZaZY0hrKJl+Z/3b8CC94gnVSLjktcAM2t7iW1K4UqT6+N/wu9Igr7YVb
muOt1LhNGpi9H/Ix/F1t2FapXFA/FdeYYViVvTNJJeroHoZFsgYeB8tDDSHnH4XS
dXy5Cp5yZxXEjzCZUZhJ7/VkCDQ9cIgrJTxS1syFUeV99Sxr/y+qAfrU7B4VN8JH
n5vypfV+tvHIsJH3J6Wn89H2tX10WSSQwcEQkMyQP5YCYqFSH5haS7UrXhf65/aF
EugOBDIsX0YxaPO5Dtsgr2BZBwPpt7/ZeshnAgMBAAGjgYYwgYMwCQYDVR0TBAIw
ADALBgNVHQ8EBAMCBPAwEwYDVR0lBAwwCgYIKwYBBQUHAwEwVAYDVR0RBE0wS4IJ
bG9jYWxob3N0ggd2aXAuZGV2ggdwbWMuZGV2gglsb2NhbC5kZXaCCSoudmlwLmRl
doIJKi5wbWMuZGV2ggsqLmxvY2FsLmRldjANBgkqhkiG9w0BAQUFAAOCAQEAt1KW
vWit5td5K5A9WIHUYGqhNugBlXg0jqhq4xxnF6UW4OUsdP+1UZaQ9PzMi/YcltwY
H+jvDnZ0vreN3/Q7F1cmVfmtR8wT8pZD8hd2qoVyqwNhcn25MaKQWOs5lf1qgunU
M62CseWje5eYnotgFZoZV000wgucM4EgFty6JawiewS9dGb2Ezwv0faz2GPN+h0f
72Y3MvxuSN/PdTOS0TdZrlkPpxH1DujcRhuWN2uRH2a+eP+14L/5L0pbnO3CkKyu
2QBFKjQuKzJ3M3OZO6lrrrZ8NOLU83HLdbeuvj+m40SdSj9yoHa1Kn0pbLAlVKuJ
v6F8CjDNyJ1+zJXwpg==
-----END CERTIFICATE-----
-----BEGIN CERTIFICATE-----
MIID6TCCAtGgAwIBAgIJAP+joldyJIaGMA0GCSqGSIb3DQEBBQUAMIGKMQswCQYD
VQQGEwJVUzETMBEGA1UECAwKQ2FsaWZvcm5pYTEUMBIGA1UEBwwLTG9zIEFuZ2Vs
ZXMxITAfBgNVBAoMGFBlbnNrZSBNZWRpYSBDb3Jwb3JhdGlvbjEMMAoGA1UEAwwD
UE1DMR8wHQYJKoZIhvcNAQkBFhBkaXN0LmRldkBwbWMuY29tMB4XDTE0MDQyMTE2
Mjk1MVoXDTQxMDkwNTE2Mjk1MVowgYoxCzAJBgNVBAYTAlVTMRMwEQYDVQQIDApD
YWxpZm9ybmlhMRQwEgYDVQQHDAtMb3MgQW5nZWxlczEhMB8GA1UECgwYUGVuc2tl
IE1lZGlhIENvcnBvcmF0aW9uMQwwCgYDVQQDDANQTUMxHzAdBgkqhkiG9w0BCQEW
EGRpc3QuZGV2QHBtYy5jb20wggEiMA0GCSqGSIb3DQEBAQUAA4IBDwAwggEKAoIB
AQDfpFIUHsOkdNKA+3Ip0UQHSTBC2mE2/tZkFVy7nyplm9/hb0ILBFobZ6BQncdq
ojrb2TTBy0acy7CuTwFblDa8qeFKQy/DbY1I5qVTwUMkB7nhsQhmBR0SpETZsL++
hRcAiDCNWHWlcNihowYKUpsMYf9gD7f+xyK0+TdNbioDZBty9vjJBPKBZRjqQA9/
XY5057Ny1r8xnkWYG3n9HU7hU9p4xpiCxJOLaiGK1s07QWNS+GGvUSEk4WuIVqdM
sf8XbKyP6kKq5FH5vlfnrq3e1jC5pmoUZfPHJ3GBX5LLzJiEwQm1iGNEHhev628G
KE1NCDcw6CzF4QyUbCnNv1FNAgMBAAGjUDBOMB0GA1UdDgQWBBQcjUrSoG+8Fpkj
D2dmfXV77E0WPjAfBgNVHSMEGDAWgBQcjUrSoG+8FpkjD2dmfXV77E0WPjAMBgNV
HRMEBTADAQH/MA0GCSqGSIb3DQEBBQUAA4IBAQAb3jSZu8D8F6OLrD4U0VJ3mBRN
M33kT7TQ3vv934vlUKBsqpPSxAKPSNbjkej9PYFp84cKg3fXI8OS7m7E5R/nMgSx
e/lsBps5CfyKQUcV6SIfDj+vPjBLLenCRC7rxMZJQ2Op1j3Buhwx+TPDNpl7r0Kp
KKl6YVVlzyHpFWqw8dM9vf270ZPEDPDfYv3/Kw8IkCU2bc69TcksPfjCiTxoJ8x1
YBcfVfT0wm+CFWl4PWxZQa2NYZd5pZB6q/lVdoLA5wfl92brQmchgI77xPefm/Qh
rVqmlekqDiglJC/fUF9/2GJx6iza5S+KHYkRxy8wWaDTmuIQHq9l8NWQM0EQ
-----END CERTIFICATE-----
