Certificate:
    Data:
        Version: 3 (0x2)
        Serial Number: 11 (0xb)
    Signature Algorithm: sha1WithRSAEncryption
        Issuer: C=US, ST=California, L=Los Angeles, O=Penske Media Corporation, CN=PMC/emailAddress=dist.dev@pmc.com
        Validity
            Not Before: Jan  8 18:27:36 2015 GMT
            Not After : Jan  5 18:27:36 2025 GMT
        Subject: C=US, ST=California, L=Los Angeles, O=PMC, OU=PMC, CN=PMC Dev Sites
        Subject Public Key Info:
            Public Key Algorithm: rsaEncryption
                Public-Key: (2048 bit)
                Modulus:
                    00:ac:24:91:18:ef:0e:a8:a8:e7:96:c8:4b:36:5b:
                    57:a3:cb:c4:46:7f:be:74:35:28:98:17:19:62:9a:
                    16:2d:ba:85:90:66:e9:ee:57:15:3a:71:6d:f5:65:
                    a6:58:d2:1a:ca:26:5f:99:ff:76:fc:08:2f:78:82:
                    75:52:2e:39:2d:70:03:36:b7:b8:96:d4:ae:14:a9:
                    3e:be:37:fc:2e:f4:88:2b:ed:85:5b:9a:e3:ad:d4:
                    b8:4d:1a:98:bd:1f:f2:31:fc:5d:6d:d8:56:a9:5c:
                    50:3f:15:d7:98:61:58:95:bd:33:49:25:ea:e8:1e:
                    86:45:b2:06:1e:07:cb:43:0d:21:e7:1f:85:d2:75:
                    7c:b9:0a:9e:72:67:15:c4:8f:30:99:51:98:49:ef:
                    f5:64:08:34:3d:70:88:2b:25:3c:52:d6:cc:85:51:
                    e5:7d:f5:2c:6b:ff:2f:aa:01:fa:d4:ec:1e:15:37:
                    c2:47:9f:9b:f2:a5:f5:7e:b6:f1:c8:b0:91:f7:27:
                    a5:a7:f3:d1:f6:b5:7d:74:59:24:90:c1:c1:10:90:
                    cc:90:3f:96:02:62:a1:52:1f:98:5a:4b:b5:2b:5e:
                    17:fa:e7:f6:85:12:e8:0e:04:32:2c:5f:46:31:68:
                    f3:b9:0e:db:20:af:60:59:07:03:e9:b7:bf:d9:7a:
                    c8:67
                Exponent: 65537 (0x10001)
        X509v3 extensions:
            X509v3 Basic Constraints: 
                CA:FALSE
            X509v3 Key Usage: 
                Digital Signature, Non Repudiation, Key Encipherment, Data Encipherment
            X509v3 Extended Key Usage: 
                TLS Web Server Authentication
            X509v3 Subject Alternative Name: 
                DNS:localhost, DNS:vip.dev, DNS:pmc.dev, DNS:local.dev, DNS:*.vip.dev, DNS:*.pmc.dev, DNS:*.local.dev, DNS:vip.local, DNS:*.vip.local
    Signature Algorithm: sha1WithRSAEncryption
         d0:3c:6f:e5:a9:1e:bb:0e:af:75:2e:50:d7:f1:44:da:3a:df:
         67:9d:f5:e3:16:8c:e8:24:1b:cb:cb:2b:26:24:49:45:9e:23:
         27:f0:40:24:e2:df:a7:c1:64:34:1a:65:15:b7:30:9a:b9:a0:
         8b:08:5d:84:4e:02:17:c2:cb:e2:c0:ae:38:f5:a3:c6:b9:31:
         fb:96:de:ae:31:80:a5:83:66:87:30:4a:fd:d5:ac:5f:a9:92:
         6b:05:bc:3a:a8:cc:22:9b:f4:3d:6c:13:c6:6a:1c:1b:78:cf:
         4f:af:62:67:b6:5c:f0:73:07:0c:cf:e0:b2:1b:e7:b1:29:21:
         15:08:3e:b8:d4:91:62:6b:e2:2d:b5:c2:57:af:de:35:9d:8a:
         a8:5a:22:eb:b7:c4:8c:62:c0:b3:1e:91:5d:99:6f:bf:c4:71:
         de:60:e8:b9:83:07:39:78:82:82:9d:14:fb:a8:6e:57:33:f5:
         54:aa:8c:e4:f8:dd:7c:bb:4a:dd:3b:51:3b:af:b3:30:38:f8:
         5b:d9:f2:e2:cf:fd:e7:04:7e:85:83:5b:7c:20:0f:2d:d3:e5:
         5e:53:fd:0f:a0:0b:8e:ac:db:33:da:f4:18:45:c7:7f:85:c2:
         85:a3:1c:ad:eb:e4:5f:5d:5f:10:86:8a:a7:ed:3a:72:5f:43:
         d8:8d:4a:f3
-----BEGIN CERTIFICATE-----
MIIEETCCAvmgAwIBAgIBCzANBgkqhkiG9w0BAQUFADCBijELMAkGA1UEBhMCVVMx
EzARBgNVBAgMCkNhbGlmb3JuaWExFDASBgNVBAcMC0xvcyBBbmdlbGVzMSEwHwYD
VQQKDBhQZW5za2UgTWVkaWEgQ29ycG9yYXRpb24xDDAKBgNVBAMMA1BNQzEfMB0G
CSqGSIb3DQEJARYQZGlzdC5kZXZAcG1jLmNvbTAeFw0xNTAxMDgxODI3MzZaFw0y
NTAxMDUxODI3MzZaMGwxCzAJBgNVBAYTAlVTMRMwEQYDVQQIDApDYWxpZm9ybmlh
MRQwEgYDVQQHDAtMb3MgQW5nZWxlczEMMAoGA1UECgwDUE1DMQwwCgYDVQQLDANQ
TUMxFjAUBgNVBAMMDVBNQyBEZXYgU2l0ZXMwggEiMA0GCSqGSIb3DQEBAQUAA4IB
DwAwggEKAoIBAQCsJJEY7w6oqOeWyEs2W1ejy8RGf750NSiYFxlimhYtuoWQZunu
VxU6cW31ZaZY0hrKJl+Z/3b8CC94gnVSLjktcAM2t7iW1K4UqT6+N/wu9Igr7YVb
muOt1LhNGpi9H/Ix/F1t2FapXFA/FdeYYViVvTNJJeroHoZFsgYeB8tDDSHnH4XS
dXy5Cp5yZxXEjzCZUZhJ7/VkCDQ9cIgrJTxS1syFUeV99Sxr/y+qAfrU7B4VN8JH
n5vypfV+tvHIsJH3J6Wn89H2tX10WSSQwcEQkMyQP5YCYqFSH5haS7UrXhf65/aF
EugOBDIsX0YxaPO5Dtsgr2BZBwPpt7/ZeshnAgMBAAGjgZ4wgZswCQYDVR0TBAIw
ADALBgNVHQ8EBAMCBPAwEwYDVR0lBAwwCgYIKwYBBQUHAwEwbAYDVR0RBGUwY4IJ
bG9jYWxob3N0ggd2aXAuZGV2ggdwbWMuZGV2gglsb2NhbC5kZXaCCSoudmlwLmRl
doIJKi5wbWMuZGV2ggsqLmxvY2FsLmRldoIJdmlwLmxvY2FsggsqLnZpcC5sb2Nh
bDANBgkqhkiG9w0BAQUFAAOCAQEA0Dxv5akeuw6vdS5Q1/FE2jrfZ5314xaM6CQb
y8srJiRJRZ4jJ/BAJOLfp8FkNBplFbcwmrmgiwhdhE4CF8LL4sCuOPWjxrkx+5be
rjGApYNmhzBK/dWsX6mSawW8OqjMIpv0PWwTxmocG3jPT69iZ7Zc8HMHDM/gshvn
sSkhFQg+uNSRYmviLbXCV6/eNZ2KqFoi67fEjGLAsx6RXZlvv8Rx3mDouYMHOXiC
gp0U+6huVzP1VKqM5PjdfLtK3TtRO6+zMDj4W9ny4s/95wR+hYNbfCAPLdPlXlP9
D6ALjqzbM9r0GEXHf4XChaMcrevkX11fEIaKp+06cl9D2I1K8w==
-----END CERTIFICATE-----
-----BEGIN CERTIFICATE-----
MIID6TCCAtGgAwIBAgIJAP+joldyJIaGMA0GCSqGSIb3DQEBBQUAMIGKMQswCQYD
VQQGEwJVUzETMBEGA1UECAwKQ2FsaWZvcm5pYTEUMBIGA1UEBwwLTG9zIEFuZ2Vs
ZXMxITAfBgNVBAoMGFBlbnNrZSBNZWRpYSBDb3Jwb3JhdGlvbjEMMAoGA1UEAwwD
UE1DMR8wHQYJKoZIhvcNAQkBFhBkaXN0LmRldkBwbWMuY29tMB4XDTE0MDQyMTE2
Mjk1MVoXDTQxMDkwNTE2Mjk1MVowgYoxCzAJBgNVBAYTAlVTMRMwEQYDVQQIDApD
YWxpZm9ybmlhMRQwEgYDVQQHDAtMb3MgQW5nZWxlczEhMB8GA1UECgwYUGVuc2tl
IE1lZGlhIENvcnBvcmF0aW9uMQwwCgYDVQQDDANQTUMxHzAdBgkqhkiG9w0BCQEW
EGRpc3QuZGV2QHBtYy5jb20wggEiMA0GCSqGSIb3DQEBAQUAA4IBDwAwggEKAoIB
AQDfpFIUHsOkdNKA+3Ip0UQHSTBC2mE2/tZkFVy7nyplm9/hb0ILBFobZ6BQncdq
ojrb2TTBy0acy7CuTwFblDa8qeFKQy/DbY1I5qVTwUMkB7nhsQhmBR0SpETZsL++
hRcAiDCNWHWlcNihowYKUpsMYf9gD7f+xyK0+TdNbioDZBty9vjJBPKBZRjqQA9/
XY5057Ny1r8xnkWYG3n9HU7hU9p4xpiCxJOLaiGK1s07QWNS+GGvUSEk4WuIVqdM
sf8XbKyP6kKq5FH5vlfnrq3e1jC5pmoUZfPHJ3GBX5LLzJiEwQm1iGNEHhev628G
KE1NCDcw6CzF4QyUbCnNv1FNAgMBAAGjUDBOMB0GA1UdDgQWBBQcjUrSoG+8Fpkj
D2dmfXV77E0WPjAfBgNVHSMEGDAWgBQcjUrSoG+8FpkjD2dmfXV77E0WPjAMBgNV
HRMEBTADAQH/MA0GCSqGSIb3DQEBBQUAA4IBAQAb3jSZu8D8F6OLrD4U0VJ3mBRN
M33kT7TQ3vv934vlUKBsqpPSxAKPSNbjkej9PYFp84cKg3fXI8OS7m7E5R/nMgSx
e/lsBps5CfyKQUcV6SIfDj+vPjBLLenCRC7rxMZJQ2Op1j3Buhwx+TPDNpl7r0Kp
KKl6YVVlzyHpFWqw8dM9vf270ZPEDPDfYv3/Kw8IkCU2bc69TcksPfjCiTxoJ8x1
YBcfVfT0wm+CFWl4PWxZQa2NYZd5pZB6q/lVdoLA5wfl92brQmchgI77xPefm/Qh
rVqmlekqDiglJC/fUF9/2GJx6iza5S+KHYkRxy8wWaDTmuIQHq9l8NWQM0EQ
-----END CERTIFICATE-----
